target datalayout = "e-m:e-p270:32:32-p271:32:32-p272:64:64-i64:64-i128:128-f80:128-n8:16:32:64-S128"
target triple = "x86_64-pc-linux-gnu"

%struct._packet_info = type { ptr, ptr, i32, i32, %struct.nstime_t, %struct.nstime_t, %struct.nstime_t, i8, ptr, ptr, ptr, ptr, %struct._address, %struct._address, %struct._address, %struct._address, %struct._address, %struct._address, i32, ptr, i8, [3 x i8], %struct.anon, i32, i32, i32, i32, ptr, i8, ptr, ptr, i16, i16, i32, i32, i16, i32, i32, ptr, ptr, ptr, i8, i8, i16, i16, i16, i32, i16, i16, ptr, ptr, ptr, ptr, ptr, i32, i32 }
%struct.nstime_t = type { i64, i32 }
%struct._address = type { i32, i32, ptr, ptr }
%struct.anon = type { i8, [3 x i8] }

@.str.6 = private unnamed_addr constant [20 x i8] c"Unspecified/Invalid\00", align 1
@.str.7 = private unnamed_addr constant [37 x i8] c"%s since SEL device's initialization\00", align 1
@.str.8 = private unnamed_addr constant [3 x i8] c"%s\00", align 1

; Function Attrs: null_pointer_is_valid sspstrong uwtable
define hidden void @ipmi_add_timestamp(ptr noundef %0, ptr noundef %1, i32 noundef %2, ptr noundef %3, i32 noundef %4) #0 {
  %6 = alloca ptr, align 8
  %7 = alloca ptr, align 8
  %8 = alloca i32, align 4
  %9 = alloca ptr, align 8
  %10 = alloca i32, align 4
  %11 = alloca i32, align 4
  store ptr %0, ptr %6, align 8
  store ptr %1, ptr %7, align 8
  store i32 %2, ptr %8, align 4
  store ptr %3, ptr %9, align 8
  store i32 %4, ptr %10, align 4
  call void @llvm.lifetime.start.p0(i64 4, ptr %11) #10
  %12 = load ptr, ptr %9, align 8
  %13 = load i32, ptr %10, align 4
  %14 = call i32 @tvb_get_letohl(ptr noundef %12, i32 noundef %13)
  store i32 %14, ptr %11, align 4
  %15 = load i32, ptr %11, align 4
  %16 = icmp eq i32 %15, -1
  br i1 %16, label %17, label %24

17:                                               ; preds = %5
  %18 = load ptr, ptr %7, align 8
  %19 = load i32, ptr %8, align 4
  %20 = load ptr, ptr %9, align 8
  %21 = load i32, ptr %10, align 4
  %22 = load i32, ptr %11, align 4
  %23 = call ptr (ptr, i32, ptr, i32, i32, i32, ptr, ...) @proto_tree_add_uint_format_value(ptr noundef %18, i32 noundef %19, ptr noundef %20, i32 noundef %21, i32 noundef 4, i32 noundef %22, ptr noundef @.str.6)
  br label %53

24:                                               ; preds = %5
  %25 = load i32, ptr %11, align 4
  %26 = icmp ule i32 %25, 536870912
  br i1 %26, label %27, label %39

27:                                               ; preds = %24
  %28 = load ptr, ptr %7, align 8
  %29 = load i32, ptr %8, align 4
  %30 = load ptr, ptr %9, align 8
  %31 = load i32, ptr %10, align 4
  %32 = load i32, ptr %11, align 4
  %33 = load ptr, ptr %6, align 8
  %34 = getelementptr inbounds nuw %struct._packet_info, ptr %33, i32 0, i32 51
  %35 = load ptr, ptr %34, align 8
  %36 = load i32, ptr %11, align 4
  %37 = call ptr @unsigned_time_secs_to_str(ptr noundef %35, i32 noundef %36)
  %38 = call ptr (ptr, i32, ptr, i32, i32, i32, ptr, ...) @proto_tree_add_uint_format_value(ptr noundef %28, i32 noundef %29, ptr noundef %30, i32 noundef %31, i32 noundef 4, i32 noundef %32, ptr noundef @.str.7, ptr noundef %37)
  br label %52

39:                                               ; preds = %24
  %40 = load ptr, ptr %7, align 8
  %41 = load i32, ptr %8, align 4
  %42 = load ptr, ptr %9, align 8
  %43 = load i32, ptr %10, align 4
  %44 = load i32, ptr %11, align 4
  %45 = load ptr, ptr %6, align 8
  %46 = getelementptr inbounds nuw %struct._packet_info, ptr %45, i32 0, i32 51
  %47 = load ptr, ptr %46, align 8
  %48 = load i32, ptr %11, align 4
  %49 = zext i32 %48 to i64
  %50 = call ptr @abs_time_secs_to_str_ex(ptr noundef %47, i64 noundef %49, i32 noundef 19, i32 noundef 1)
  %51 = call ptr (ptr, i32, ptr, i32, i32, i32, ptr, ...) @proto_tree_add_uint_format_value(ptr noundef %40, i32 noundef %41, ptr noundef %42, i32 noundef %43, i32 noundef 4, i32 noundef %44, ptr noundef @.str.8, ptr noundef %50)
  br label %52

52:                                               ; preds = %39, %27
  br label %53

53:                                               ; preds = %52, %17
  call void @llvm.lifetime.end.p0(i64 4, ptr %11) #10
  ret void
}