; Function Attrs: null_pointer_is_valid sspstrong uwtable
define hidden void @ipmi_add_timestamp(ptr noundef readonly captures(none) %0, ptr noundef %1, i32 noundef %2, ptr noundef %3, i32 noundef %4) local_unnamed_addr #0 {
  %6 = tail call i32 @tvb_get_letohl(ptr noundef %3, i32 noundef %4)
  %7 = icmp eq i32 %6, -1
  br i1 %7, label %8, label %10

8:                                                ; preds = %5
  %9 = tail call ptr (ptr, i32, ptr, i32, i32, i32, ptr, ...) @proto_tree_add_uint_format_value(ptr noundef %1, i32 noundef %2, ptr noundef %3, i32 noundef %4, i32 noundef 4, i32 noundef -1, ptr noundef nonnull @.str.6)
  br label %21

10:                                               ; preds = %5
  %11 = icmp ult i32 %6, 536870913
  %12 = getelementptr inbounds nuw i8, ptr %0, i64 408
  %13 = load ptr, ptr %12, align 8
  br i1 %11, label %14, label %17

14:                                               ; preds = %10
  %15 = tail call ptr @unsigned_time_secs_to_str(ptr noundef %13, i32 noundef %6)
  %16 = tail call ptr (ptr, i32, ptr, i32, i32, i32, ptr, ...) @proto_tree_add_uint_format_value(ptr noundef %1, i32 noundef %2, ptr noundef %3, i32 noundef %4, i32 noundef 4, i32 noundef %6, ptr noundef nonnull @.str.7, ptr noundef %15)
  br label %21

17:                                               ; preds = %10
  %18 = zext i32 %6 to i64
  %19 = tail call ptr @abs_time_secs_to_str_ex(ptr noundef %13, i64 noundef %18, i32 noundef 19, i32 noundef 1)
  %20 = tail call ptr (ptr, i32, ptr, i32, i32, i32, ptr, ...) @proto_tree_add_uint_format_value(ptr noundef %1, i32 noundef %2, ptr noundef %3, i32 noundef %4, i32 noundef 4, i32 noundef %6, ptr noundef nonnull @.str.8, ptr noundef %19)
  br label %21

21:                                               ; preds = %14, %17, %8
  ret void
}